; ModuleID = '30/3145.cpp'
source_filename = "30/3145.cpp"
target datalayout = "e-m:e-p270:32:32-p271:32:32-p272:64:64-i64:64-f80:128-n8:16:32:64-S128"
target triple = "x86_64-pc-linux-gnu"

%"class.std::ios_base::Init" = type { i8 }
%"class.std::basic_istream" = type { i32 (...)**, i64, %"class.std::basic_ios" }
%"class.std::basic_ios" = type { %"class.std::ios_base", %"class.std::basic_ostream"*, i8, i8, %"class.std::basic_streambuf"*, %"class.std::ctype"*, %"class.std::num_put"*, %"class.std::num_get"* }
%"class.std::ios_base" = type { i32 (...)**, i64, i64, i32, i32, i32, %"struct.std::ios_base::_Callback_list"*, %"struct.std::ios_base::_Words", [8 x %"struct.std::ios_base::_Words"], i32, %"struct.std::ios_base::_Words"*, %"class.std::locale" }
%"struct.std::ios_base::_Callback_list" = type { %"struct.std::ios_base::_Callback_list"*, void (i32, %"class.std::ios_base"*, i32)*, i32, i32 }
%"struct.std::ios_base::_Words" = type { i8*, i64 }
%"class.std::locale" = type { %"class.std::locale::_Impl"* }
%"class.std::locale::_Impl" = type { i32, %"class.std::locale::facet"**, i64, %"class.std::locale::facet"**, i8** }
%"class.std::locale::facet" = type <{ i32 (...)**, i32, [4 x i8] }>
%"class.std::basic_ostream" = type { i32 (...)**, %"class.std::basic_ios" }
%"class.std::basic_streambuf" = type { i32 (...)**, i8*, i8*, i8*, i8*, i8*, i8*, %"class.std::locale" }
%"class.std::ctype" = type <{ %"class.std::locale::facet.base", [4 x i8], %struct.__locale_struct*, i8, [7 x i8], i32*, i32*, i16*, i8, [256 x i8], [256 x i8], i8, [6 x i8] }>
%"class.std::locale::facet.base" = type <{ i32 (...)**, i32 }>
%struct.__locale_struct = type { [13 x %struct.__locale_data*], i16*, i32*, i32*, [13 x i8*] }
%struct.__locale_data = type opaque
%"class.std::num_put" = type { %"class.std::locale::facet.base", [4 x i8] }
%"class.std::num_get" = type { %"class.std::locale::facet.base", [4 x i8] }

@_ZStL8__ioinit = internal global %"class.std::ios_base::Init" zeroinitializer, align 1
@__dso_handle = external hidden global i8
@_ZSt3cin = external dso_local global %"class.std::basic_istream", align 8
@_ZSt4cout = external dso_local global %"class.std::basic_ostream", align 8
@llvm.global_ctors = appending global [1 x { i32, void ()*, i8* }] [{ i32, void ()*, i8* } { i32 65535, void ()* @_GLOBAL__sub_I_3145.cpp, i8* null }]

; Function Attrs: noinline uwtable
define internal void @__cxx_global_var_init() #0 section ".text.startup" {
  call void @_ZNSt8ios_base4InitC1Ev(%"class.std::ios_base::Init"* @_ZStL8__ioinit)
  %1 = call i32 @__cxa_atexit(void (i8*)* bitcast (void (%"class.std::ios_base::Init"*)* @_ZNSt8ios_base4InitD1Ev to void (i8*)*), i8* getelementptr inbounds (%"class.std::ios_base::Init", %"class.std::ios_base::Init"* @_ZStL8__ioinit, i32 0, i32 0), i8* @__dso_handle) #3
  ret void
}

declare dso_local void @_ZNSt8ios_base4InitC1Ev(%"class.std::ios_base::Init"*) unnamed_addr #1

; Function Attrs: nounwind
declare dso_local void @_ZNSt8ios_base4InitD1Ev(%"class.std::ios_base::Init"*) unnamed_addr #2

; Function Attrs: nounwind
declare dso_local i32 @__cxa_atexit(void (i8*)*, i8*, i8*) #3

; Function Attrs: noinline norecurse uwtable
define dso_local i32 @main() #4 {
  %1 = alloca i32, align 4
  %2 = alloca i32, align 4
  %3 = alloca i32, align 4
  %4 = alloca i32, align 4
  store i32 0, i32* %1, align 4
  store i32 0, i32* %4, align 4
  %5 = call dereferenceable(280) %"class.std::basic_istream"* @_ZNSirsERi(%"class.std::basic_istream"* @_ZSt3cin, i32* dereferenceable(4) %2)
  store i32 1, i32* %3, align 4
  br label %6

6:                                                ; preds = %76, %0
  %7 = load i32, i32* %3, align 4
  %8 = load i32, i32* %2, align 4
  %9 = icmp sle i32 %7, %8
  br i1 %9, label %10, label %79

10:                                               ; preds = %6
  %11 = load i32, i32* %3, align 4
  %12 = srem i32 %11, 7
  %13 = icmp ne i32 %12, 0
  br i1 %13, label %14, label %72

14:                                               ; preds = %10
  %15 = load i32, i32* %3, align 4
  %16 = icmp ne i32 %15, 17
  br i1 %16, label %17, label %68

17:                                               ; preds = %14
  %18 = load i32, i32* %3, align 4
  %19 = icmp ne i32 %18, 27
  br i1 %19, label %20, label %68

20:                                               ; preds = %17
  %21 = load i32, i32* %3, align 4
  %22 = icmp ne i32 %21, 37
  br i1 %22, label %23, label %68

23:                                               ; preds = %20
  %24 = load i32, i32* %3, align 4
  %25 = icmp ne i32 %24, 47
  br i1 %25, label %26, label %68

26:                                               ; preds = %23
  %27 = load i32, i32* %3, align 4
  %28 = icmp ne i32 %27, 57
  br i1 %28, label %29, label %68

29:                                               ; preds = %26
  %30 = load i32, i32* %3, align 4
  %31 = icmp ne i32 %30, 67
  br i1 %31, label %32, label %68

32:                                               ; preds = %29
  %33 = load i32, i32* %3, align 4
  %34 = icmp ne i32 %33, 71
  br i1 %34, label %35, label %68

35:                                               ; preds = %32
  %36 = load i32, i32* %3, align 4
  %37 = icmp ne i32 %36, 72
  br i1 %37, label %38, label %68

38:                                               ; preds = %35
  %39 = load i32, i32* %3, align 4
  %40 = icmp ne i32 %39, 73
  br i1 %40, label %41, label %68

41:                                               ; preds = %38
  %42 = load i32, i32* %3, align 4
  %43 = icmp ne i32 %42, 74
  br i1 %43, label %44, label %68

44:                                               ; preds = %41
  %45 = load i32, i32* %3, align 4
  %46 = icmp ne i32 %45, 75
  br i1 %46, label %47, label %68

47:                                               ; preds = %44
  %48 = load i32, i32* %3, align 4
  %49 = icmp ne i32 %48, 76
  br i1 %49, label %50, label %68

50:                                               ; preds = %47
  %51 = load i32, i32* %3, align 4
  %52 = icmp ne i32 %51, 78
  br i1 %52, label %53, label %68

53:                                               ; preds = %50
  %54 = load i32, i32* %3, align 4
  %55 = icmp ne i32 %54, 79
  br i1 %55, label %56, label %68

56:                                               ; preds = %53
  %57 = load i32, i32* %3, align 4
  %58 = icmp ne i32 %57, 87
  br i1 %58, label %59, label %68

59:                                               ; preds = %56
  %60 = load i32, i32* %3, align 4
  %61 = icmp ne i32 %60, 97
  br i1 %61, label %62, label %68

62:                                               ; preds = %59
  %63 = load i32, i32* %4, align 4
  %64 = load i32, i32* %3, align 4
  %65 = load i32, i32* %3, align 4
  %66 = mul nsw i32 %64, %65
  %67 = add nsw i32 %63, %66
  store i32 %67, i32* %4, align 4
  br label %71

68:                                               ; preds = %59, %56, %53, %50, %47, %44, %41, %38, %35, %32, %29, %26, %23, %20, %17, %14
  %69 = load i32, i32* %4, align 4
  %70 = add nsw i32 %69, 0
  store i32 %70, i32* %4, align 4
  br label %71

71:                                               ; preds = %68, %62
  br label %75

72:                                               ; preds = %10
  %73 = load i32, i32* %4, align 4
  %74 = add nsw i32 %73, 0
  store i32 %74, i32* %4, align 4
  br label %75

75:                                               ; preds = %72, %71
  br label %76

76:                                               ; preds = %75
  %77 = load i32, i32* %3, align 4
  %78 = add nsw i32 %77, 1
  store i32 %78, i32* %3, align 4
  br label %6

79:                                               ; preds = %6
  %80 = load i32, i32* %4, align 4
  %81 = call dereferenceable(272) %"class.std::basic_ostream"* @_ZNSolsEi(%"class.std::basic_ostream"* @_ZSt4cout, i32 %80)
  %82 = call dereferenceable(272) %"class.std::basic_ostream"* @_ZNSolsEPFRSoS_E(%"class.std::basic_ostream"* %81, %"class.std::basic_ostream"* (%"class.std::basic_ostream"*)* @_ZSt4endlIcSt11char_traitsIcEERSt13basic_ostreamIT_T0_ES6_)
  ret i32 0
}

declare dso_local dereferenceable(280) %"class.std::basic_istream"* @_ZNSirsERi(%"class.std::basic_istream"*, i32* dereferenceable(4)) #1

declare dso_local dereferenceable(272) %"class.std::basic_ostream"* @_ZNSolsEi(%"class.std::basic_ostream"*, i32) #1

declare dso_local dereferenceable(272) %"class.std::basic_ostream"* @_ZNSolsEPFRSoS_E(%"class.std::basic_ostream"*, %"class.std::basic_ostream"* (%"class.std::basic_ostream"*)*) #1

declare dso_local dereferenceable(272) %"class.std::basic_ostream"* @_ZSt4endlIcSt11char_traitsIcEERSt13basic_ostreamIT_T0_ES6_(%"class.std::basic_ostream"* dereferenceable(272)) #1

; Function Attrs: noinline uwtable
define internal void @_GLOBAL__sub_I_3145.cpp() #0 section ".text.startup" {
  call void @__cxx_global_var_init()
  ret void
}


!llvm.module.flags = !{!0}
!llvm.ident = !{!1}

!0 = !{i32 1, !"wchar_size", i32 4}
!1 = !{!"clang version 10.0.0-4ubuntu1 "}
